target datalayout = "e-m:e-p270:32:32-p271:32:32-p272:64:64-i64:64-i128:128-f80:128-n8:16:32:64-S128"
target triple = "x86_64-pc-linux-gnu"

@H5_libinit_g = external global i8, align 1
@H5_libterm_g = external global i8, align 1
@.str = private unnamed_addr constant [97 x i8] c"generated/home/dtcxzyw/WorkSpace/Projects/compilers/llvm-opt-benchmark/bench/hdf5/hdf5/src/H5A.c\00", align 1
@H5E_FUNC_g = external global i64, align 8
@H5E_CANTINIT_g = external global i64, align 8
@.str.1 = private unnamed_addr constant [30 x i8] c"library initialization failed\00", align 1
@H5E_CANTSET_g = external global i64, align 8
@.str.2 = private unnamed_addr constant [22 x i8] c"can't set API context\00", align 1
@H5E_ATTR_g = external global i64, align 8
@H5E_CANTCREATE_g = external global i64, align 8
@.str.21 = private unnamed_addr constant [39 x i8] c"unable to synchronously open attribute\00", align 1
@__func__.H5Aopen_by_idx = private unnamed_addr constant [15 x i8] c"H5Aopen_by_idx\00", align 1

; Function Attrs: nounwind uwtable
define i64 @H5Aopen_by_idx(i64 noundef %0, ptr noundef %1, i32 noundef %2, i32 noundef %3, i64 noundef %4, i64 noundef %5, i64 noundef %6) #0 {
  %8 = alloca i64, align 8
  %9 = alloca ptr, align 8
  %10 = alloca i32, align 4
  %11 = alloca i32, align 4
  %12 = alloca i64, align 8
  %13 = alloca i64, align 8
  %14 = alloca i64, align 8
  %15 = alloca i64, align 8
  %16 = alloca i8, align 1
  %17 = alloca i8, align 1
  store i64 %0, ptr %8, align 8
  store ptr %1, ptr %9, align 8
  store i32 %2, ptr %10, align 4
  store i32 %3, ptr %11, align 4
  store i64 %4, ptr %12, align 8
  store i64 %5, ptr %13, align 8
  store i64 %6, ptr %14, align 8
  store i64 -1, ptr %15, align 8
  store i8 0, ptr %16, align 1
  store i8 0, ptr %17, align 1
  %18 = load i8, ptr @H5_libinit_g, align 1
  %19 = trunc i8 %18 to i1
  br i1 %19, label %24, label %20

20:                                               ; preds = %7
  %21 = load i8, ptr @H5_libterm_g, align 1
  %22 = trunc i8 %21 to i1
  %23 = xor i1 %22, true
  br label %24

24:                                               ; preds = %20, %7
  %25 = phi i1 [ false, %7 ], [ %23, %20 ]
  %26 = xor i1 %25, true
  %27 = xor i1 %26, true
  %28 = zext i1 %27 to i32
  %29 = sext i32 %28 to i64
  %30 = icmp ne i64 %29, 0
  br i1 %30, label %31, label %55

31:                                               ; preds = %24
  %32 = call i32 @H5_init_library()
  %33 = icmp slt i32 %32, 0
  %34 = xor i1 %33, true
  %35 = xor i1 %34, true
  %36 = zext i1 %35 to i32
  %37 = sext i32 %36 to i64
  %38 = icmp ne i64 %37, 0
  br i1 %38, label %39, label %54

39:                                               ; preds = %31
  br label %40

40:                                               ; preds = %39
  br label %41

41:                                               ; preds = %40
  br label %42

42:                                               ; preds = %41
  %43 = load i64, ptr @H5E_FUNC_g, align 8
  %44 = load i64, ptr @H5E_CANTINIT_g, align 8
  %45 = call i32 (ptr, ptr, i32, i64, i64, ptr, ...) @H5E_printf_stack(ptr noundef @.str, ptr noundef @__func__.H5Aopen_by_idx, i32 noundef 797, i64 noundef %43, i64 noundef %44, ptr noundef @.str.1)
  br label %46

46:                                               ; preds = %42
  store i8 1, ptr %17, align 1
  %47 = load i8, ptr %17, align 1
  %48 = trunc i8 %47 to i1
  %49 = zext i1 %48 to i8
  store i8 %49, ptr %17, align 1
  br label %50

50:                                               ; preds = %46
  br label %51

51:                                               ; preds = %50
  store i64 -1, ptr %15, align 8
  br label %106

52:                                               ; No predecessors!
  br label %53

53:                                               ; preds = %52
  br label %54

54:                                               ; preds = %53, %31
  br label %55

55:                                               ; preds = %54, %24
  %56 = call i32 @H5CX_push()
  %57 = icmp slt i32 %56, 0
  %58 = xor i1 %57, true
  %59 = xor i1 %58, true
  %60 = zext i1 %59 to i32
  %61 = sext i32 %60 to i64
  %62 = icmp ne i64 %61, 0
  br i1 %62, label %63, label %78

63:                                               ; preds = %55
  br label %64

64:                                               ; preds = %63
  br label %65

65:                                               ; preds = %64
  br label %66

66:                                               ; preds = %65
  %67 = load i64, ptr @H5E_FUNC_g, align 8
  %68 = load i64, ptr @H5E_CANTSET_g, align 8
  %69 = call i32 (ptr, ptr, i32, i64, i64, ptr, ...) @H5E_printf_stack(ptr noundef @.str, ptr noundef @__func__.H5Aopen_by_idx, i32 noundef 797, i64 noundef %67, i64 noundef %68, ptr noundef @.str.2)
  br label %70

70:                                               ; preds = %66
  store i8 1, ptr %17, align 1
  %71 = load i8, ptr %17, align 1
  %72 = trunc i8 %71 to i1
  %73 = zext i1 %72 to i8
  store i8 %73, ptr %17, align 1
  br label %74

74:                                               ; preds = %70
  br label %75

75:                                               ; preds = %74
  store i64 -1, ptr %15, align 8
  br label %106

76:                                               ; No predecessors!
  br label %77

77:                                               ; preds = %76
  br label %79

78:                                               ; preds = %55
  store i8 1, ptr %16, align 1
  br label %79

79:                                               ; preds = %78, %77
  %80 = call i32 @H5E_clear_stack()
  %81 = load i64, ptr %8, align 8
  %82 = load ptr, ptr %9, align 8
  %83 = load i32, ptr %10, align 4
  %84 = load i32, ptr %11, align 4
  %85 = load i64, ptr %12, align 8
  %86 = load i64, ptr %13, align 8
  %87 = load i64, ptr %14, align 8
  %88 = call i64 @H5A__open_by_idx_api_common(i64 noundef %81, ptr noundef %82, i32 noundef %83, i32 noundef %84, i64 noundef %85, i64 noundef %86, i64 noundef %87, ptr noundef null, ptr noundef null)
  store i64 %88, ptr %15, align 8
  %89 = icmp slt i64 %88, 0
  br i1 %89, label %90, label %105

90:                                               ; preds = %79
  br label %91

91:                                               ; preds = %90
  br label %92

92:                                               ; preds = %91
  br label %93

93:                                               ; preds = %92
  %94 = load i64, ptr @H5E_ATTR_g, align 8
  %95 = load i64, ptr @H5E_CANTCREATE_g, align 8
  %96 = call i32 (ptr, ptr, i32, i64, i64, ptr, ...) @H5E_printf_stack(ptr noundef @.str, ptr noundef @__func__.H5Aopen_by_idx, i32 noundef 802, i64 noundef %94, i64 noundef %95, ptr noundef @.str.21)
  br label %97

97:                                               ; preds = %93
  store i8 1, ptr %17, align 1
  %98 = load i8, ptr %17, align 1
  %99 = trunc i8 %98 to i1
  %100 = zext i1 %99 to i8
  store i8 %100, ptr %17, align 1
  br label %101

101:                                              ; preds = %97
  br label %102

102:                                              ; preds = %101
  store i64 -1, ptr %15, align 8
  br label %106

103:                                              ; No predecessors!
  br label %104

104:                                              ; preds = %103
  br label %105

105:                                              ; preds = %104, %79
  br label %106

106:                                              ; preds = %105, %102, %75, %51
  %107 = load i8, ptr %16, align 1
  %108 = trunc i8 %107 to i1
  %109 = xor i1 %108, true
  %110 = xor i1 %109, true
  %111 = zext i1 %110 to i32
  %112 = sext i32 %111 to i64
  %113 = icmp ne i64 %112, 0
  br i1 %113, label %114, label %116

114:                                              ; preds = %106
  %115 = call i32 @H5CX_pop(i1 noundef zeroext true)
  store i8 0, ptr %16, align 1
  br label %116

116:                                              ; preds = %114, %106
  %117 = load i8, ptr %17, align 1
  %118 = trunc i8 %117 to i1
  %119 = xor i1 %118, true
  %120 = xor i1 %119, true
  %121 = zext i1 %120 to i32
  %122 = sext i32 %121 to i64
  %123 = icmp ne i64 %122, 0
  br i1 %123, label %124, label %126

124:                                              ; preds = %116
  %125 = call i32 @H5E_dump_api_stack()
  br label %126

126:                                              ; preds = %124, %116
  %127 = load i64, ptr %15, align 8
  ret i64 %127
}