; Function Attrs: nounwind uwtable
define range(i64 -1, -9223372036854775808) i64 @H5Aopen_by_idx(i64 noundef %0, ptr noundef %1, i32 noundef %2, i32 noundef %3, i64 noundef %4, i64 noundef %5, i64 noundef %6) local_unnamed_addr #0 {
  %8 = load i8, ptr @H5_libinit_g, align 1
  %9 = trunc i8 %8 to i1
  %10 = load i8, ptr @H5_libterm_g, align 1
  %11 = trunc i8 %10 to i1
  %12 = select i1 %9, i1 true, i1 %11
  br i1 %12, label %20, label %13

13:                                               ; preds = %7
  %14 = tail call i32 @H5_init_library() #4
  %15 = icmp slt i32 %14, 0
  br i1 %15, label %16, label %20

16:                                               ; preds = %13
  %17 = load i64, ptr @H5E_FUNC_g, align 8
  %18 = load i64, ptr @H5E_CANTINIT_g, align 8
  %19 = tail call i32 (ptr, ptr, i32, i64, i64, ptr, ...) @H5E_printf_stack(ptr noundef nonnull @.str, ptr noundef nonnull @__func__.H5Aopen_by_idx, i32 noundef 797, i64 noundef %17, i64 noundef %18, ptr noundef nonnull @.str.1) #4
  br label %.thread23

20:                                               ; preds = %13, %7
  %21 = tail call i32 @H5CX_push() #4
  %22 = icmp slt i32 %21, 0
  br i1 %22, label %23, label %27

23:                                               ; preds = %20
  %24 = load i64, ptr @H5E_FUNC_g, align 8
  %25 = load i64, ptr @H5E_CANTSET_g, align 8
  %26 = tail call i32 (ptr, ptr, i32, i64, i64, ptr, ...) @H5E_printf_stack(ptr noundef nonnull @.str, ptr noundef nonnull @__func__.H5Aopen_by_idx, i32 noundef 797, i64 noundef %24, i64 noundef %25, ptr noundef nonnull @.str.2) #4
  br label %.thread23

27:                                               ; preds = %20
  %28 = tail call i32 @H5E_clear_stack() #4
  %29 = tail call fastcc i64 @H5A__open_by_idx_api_common(i64 noundef %0, ptr noundef %1, i32 noundef %2, i32 noundef %3, i64 noundef %4, i64 noundef %5, i64 noundef %6, ptr noundef null, ptr noundef null)
  %30 = icmp slt i64 %29, 0
  br i1 %30, label %.thread28, label %35

.thread28:                                        ; preds = %27
  %31 = load i64, ptr @H5E_ATTR_g, align 8
  %32 = load i64, ptr @H5E_CANTCREATE_g, align 8
  %33 = tail call i32 (ptr, ptr, i32, i64, i64, ptr, ...) @H5E_printf_stack(ptr noundef nonnull @.str, ptr noundef nonnull @__func__.H5Aopen_by_idx, i32 noundef 802, i64 noundef %31, i64 noundef %32, ptr noundef nonnull @.str.21) #4
  %34 = tail call i32 @H5CX_pop(i1 noundef zeroext true) #4
  br label %.thread23

35:                                               ; preds = %27
  %36 = tail call i32 @H5CX_pop(i1 noundef zeroext true) #4
  br label %38

.thread23:                                        ; preds = %23, %16, %.thread28
  %37 = tail call i32 @H5E_dump_api_stack() #4
  br label %38

38:                                               ; preds = %35, %.thread23
  %.0131826 = phi i64 [ -1, %.thread23 ], [ %29, %35 ]
  ret i64 %.0131826
}